target datalayout = "e-m:e-p270:32:32-p271:32:32-p272:64:64-i64:64-i128:128-f80:128-n8:16:32:64-S128"
target triple = "x86_64-pc-linux-gnu"

%struct.index_state = type { ptr, i32, i32, i32, i32, ptr, ptr, ptr, %struct.cache_time, i8, i32, %struct.hashmap, %struct.hashmap, %struct.object_id, ptr, ptr, ptr, ptr, ptr, ptr, ptr }
%struct.cache_time = type { i32, i32 }
%struct.hashmap = type { ptr, ptr, ptr, i32, i32, i32, i32, i8 }
%struct.object_id = type { [32 x i8], i32 }
%struct.cache_entry = type { %struct.hashmap_entry, %struct.stat_data, i32, i32, i32, i32, i32, %struct.object_id, [0 x i8] }
%struct.hashmap_entry = type { ptr, i32 }
%struct.stat_data = type { %struct.cache_time, %struct.cache_time, i32, i32, i32, i32, i32 }
%struct.pathspec = type { i32, i8, i32, i32, ptr }

@the_repository = external global ptr, align 8
@.str.46 = private unnamed_addr constant [23 x i8] c"tree-ish %s not found.\00", align 1
@.str.47 = private unnamed_addr constant [16 x i8] c"bad tree-ish %s\00", align 1
@overlay_tree_on_index.matchbuf = internal global [1 x ptr] zeroinitializer, align 8
@.str.48 = private unnamed_addr constant [31 x i8] c"unable to read tree entries %s\00", align 1

; Function Attrs: inlinehint nounwind uwtable
define internal void @sane_qsort(ptr noundef %0, i64 noundef %1, i64 noundef %2, ptr noundef %3) #3 {
  %5 = alloca ptr, align 8
  %6 = alloca i64, align 8
  %7 = alloca i64, align 8
  %8 = alloca ptr, align 8
  store ptr %0, ptr %5, align 8, !tbaa !64
  store i64 %1, ptr %6, align 8, !tbaa !31
  store i64 %2, ptr %7, align 8, !tbaa !31
  store ptr %3, ptr %8, align 8, !tbaa !64
  %9 = load i64, ptr %6, align 8, !tbaa !31
  %10 = icmp ugt i64 %9, 1
  br i1 %10, label %11, label %16

11:                                               ; preds = %4
  %12 = load ptr, ptr %5, align 8, !tbaa !64
  %13 = load i64, ptr %6, align 8, !tbaa !31
  %14 = load i64, ptr %7, align 8, !tbaa !31
  %15 = load ptr, ptr %8, align 8, !tbaa !64
  call void @qsort(ptr noundef %12, i64 noundef %13, i64 noundef %14, ptr noundef %15)
  br label %16

16:                                               ; preds = %11, %4
  ret void
}

; Function Attrs: nounwind uwtable
define dso_local void @overlay_tree_on_index(ptr noundef %0, ptr noundef %1, ptr noundef %2) #0 {
  %4 = alloca ptr, align 8
  %5 = alloca ptr, align 8
  %6 = alloca ptr, align 8
  %7 = alloca ptr, align 8
  %8 = alloca %struct.object_id, align 4
  %9 = alloca %struct.pathspec, align 8
  %10 = alloca ptr, align 8
  %11 = alloca i32, align 4
  %12 = alloca ptr, align 8
  %13 = alloca i32, align 4
  %14 = alloca ptr, align 8
  %15 = alloca i32, align 4
  %16 = alloca ptr, align 8
  %17 = alloca ptr, align 8
  store ptr %0, ptr %4, align 8, !tbaa !4
  store ptr %1, ptr %5, align 8, !tbaa !11
  store ptr %2, ptr %6, align 8, !tbaa !11
  call void @llvm.lifetime.start.p0(i64 8, ptr %7) #12
  call void @llvm.lifetime.start.p0(i64 36, ptr %8) #12
  call void @llvm.lifetime.start.p0(i64 24, ptr %9) #12
  call void @llvm.lifetime.start.p0(i64 8, ptr %10) #12
  store ptr null, ptr %10, align 8, !tbaa !29
  call void @llvm.lifetime.start.p0(i64 4, ptr %11) #12
  call void @llvm.lifetime.start.p0(i64 8, ptr %12) #12
  store ptr null, ptr %12, align 8, !tbaa !64
  call void @llvm.lifetime.start.p0(i64 4, ptr %13) #12
  %18 = load ptr, ptr @the_repository, align 8, !tbaa !48
  %19 = load ptr, ptr %5, align 8, !tbaa !11
  %20 = call i32 @repo_get_oid(ptr noundef %18, ptr noundef %19, ptr noundef %8)
  %21 = icmp ne i32 %20, 0
  br i1 %21, label %22, label %24

22:                                               ; preds = %3
  %23 = load ptr, ptr %5, align 8, !tbaa !11
  call void (ptr, ...) @die(ptr noundef @.str.46, ptr noundef %23) #14
  unreachable

24:                                               ; preds = %3
  %25 = call ptr @parse_tree_indirect(ptr noundef %8)
  store ptr %25, ptr %7, align 8, !tbaa !162
  %26 = load ptr, ptr %7, align 8, !tbaa !162
  %27 = icmp ne ptr %26, null
  br i1 %27, label %30, label %28

28:                                               ; preds = %24
  %29 = load ptr, ptr %5, align 8, !tbaa !11
  call void (ptr, ...) @die(ptr noundef @.str.47, ptr noundef %29) #14
  unreachable

30:                                               ; preds = %24
  %31 = load ptr, ptr %4, align 8, !tbaa !4
  call void @ensure_full_index(ptr noundef %31)
  store i32 0, ptr %11, align 4, !tbaa !9
  br label %32

32:                                               ; preds = %61, %30
  %33 = load i32, ptr %11, align 4, !tbaa !9
  %34 = load ptr, ptr %4, align 8, !tbaa !4
  %35 = getelementptr inbounds nuw %struct.index_state, ptr %34, i32 0, i32 2
  %36 = load i32, ptr %35, align 4, !tbaa !34
  %37 = icmp ult i32 %33, %36
  br i1 %37, label %38, label %64

38:                                               ; preds = %32
  call void @llvm.lifetime.start.p0(i64 8, ptr %14) #12
  %39 = load ptr, ptr %4, align 8, !tbaa !4
  %40 = getelementptr inbounds nuw %struct.index_state, ptr %39, i32 0, i32 0
  %41 = load ptr, ptr %40, align 8, !tbaa !13
  %42 = load i32, ptr %11, align 4, !tbaa !9
  %43 = sext i32 %42 to i64
  %44 = getelementptr inbounds ptr, ptr %41, i64 %43
  %45 = load ptr, ptr %44, align 8, !tbaa !29
  store ptr %45, ptr %14, align 8, !tbaa !29
  %46 = load ptr, ptr %14, align 8, !tbaa !29
  %47 = getelementptr inbounds nuw %struct.cache_entry, ptr %46, i32 0, i32 3
  %48 = load i32, ptr %47, align 8, !tbaa !9
  %49 = and i32 12288, %48
  %50 = lshr i32 %49, 12
  %51 = icmp ne i32 %50, 0
  br i1 %51, label %53, label %52

52:                                               ; preds = %38
  store i32 4, ptr %15, align 4
  br label %58

53:                                               ; preds = %38
  %54 = load ptr, ptr %14, align 8, !tbaa !29
  %55 = getelementptr inbounds nuw %struct.cache_entry, ptr %54, i32 0, i32 3
  %56 = load i32, ptr %55, align 8, !tbaa !9
  %57 = or i32 %56, 12288
  store i32 %57, ptr %55, align 8, !tbaa !9
  store i32 0, ptr %15, align 4
  br label %58

58:                                               ; preds = %53, %52
  call void @llvm.lifetime.end.p0(i64 8, ptr %14) #12
  %59 = load i32, ptr %15, align 4
  switch i32 %59, label %177 [
    i32 0, label %60
    i32 4, label %61
  ]

60:                                               ; preds = %58
  br label %61

61:                                               ; preds = %60, %58
  %62 = load i32, ptr %11, align 4, !tbaa !9
  %63 = add nsw i32 %62, 1
  store i32 %63, ptr %11, align 4, !tbaa !9
  br label %32, !llvm.loop !212

64:                                               ; preds = %32
  %65 = load ptr, ptr %6, align 8, !tbaa !11
  %66 = icmp ne ptr %65, null
  br i1 %66, label %67, label %69

67:                                               ; preds = %64
  store ptr null, ptr @overlay_tree_on_index.matchbuf, align 8, !tbaa !11
  %68 = load ptr, ptr %6, align 8, !tbaa !11
  call void @parse_pathspec(ptr noundef %9, i32 noundef 127, i32 noundef 1, ptr noundef %68, ptr noundef @overlay_tree_on_index.matchbuf)
  br label %70

69:                                               ; preds = %64
  call void @llvm.memset.p0.i64(ptr align 8 %9, i8 0, i64 24, i1 false)
  br label %70

70:                                               ; preds = %69, %67
  store i32 0, ptr %11, align 4, !tbaa !9
  br label %71

71:                                               ; preds = %98, %70
  %72 = load ptr, ptr %12, align 8, !tbaa !64
  %73 = icmp ne ptr %72, null
  br i1 %73, label %80, label %74

74:                                               ; preds = %71
  %75 = load i32, ptr %11, align 4, !tbaa !9
  %76 = load ptr, ptr %4, align 8, !tbaa !4
  %77 = getelementptr inbounds nuw %struct.index_state, ptr %76, i32 0, i32 2
  %78 = load i32, ptr %77, align 4, !tbaa !34
  %79 = icmp ult i32 %75, %78
  br label %80

80:                                               ; preds = %74, %71
  %81 = phi i1 [ false, %71 ], [ %79, %74 ]
  br i1 %81, label %82, label %101

82:                                               ; preds = %80
  call void @llvm.lifetime.start.p0(i64 8, ptr %16) #12
  %83 = load ptr, ptr %4, align 8, !tbaa !4
  %84 = getelementptr inbounds nuw %struct.index_state, ptr %83, i32 0, i32 0
  %85 = load ptr, ptr %84, align 8, !tbaa !13
  %86 = load i32, ptr %11, align 4, !tbaa !9
  %87 = sext i32 %86 to i64
  %88 = getelementptr inbounds ptr, ptr %85, i64 %87
  %89 = load ptr, ptr %88, align 8, !tbaa !29
  store ptr %89, ptr %16, align 8, !tbaa !29
  %90 = load ptr, ptr %16, align 8, !tbaa !29
  %91 = getelementptr inbounds nuw %struct.cache_entry, ptr %90, i32 0, i32 3
  %92 = load i32, ptr %91, align 8, !tbaa !9
  %93 = and i32 12288, %92
  %94 = lshr i32 %93, 12
  %95 = icmp eq i32 %94, 1
  br i1 %95, label %96, label %97

96:                                               ; preds = %82
  store ptr @read_one_entry, ptr %12, align 8, !tbaa !64
  br label %97

97:                                               ; preds = %96, %82
  call void @llvm.lifetime.end.p0(i64 8, ptr %16) #12
  br label %98

98:                                               ; preds = %97
  %99 = load i32, ptr %11, align 4, !tbaa !9
  %100 = add nsw i32 %99, 1
  store i32 %100, ptr %11, align 4, !tbaa !9
  br label %71, !llvm.loop !213

101:                                              ; preds = %80
  %102 = load ptr, ptr %12, align 8, !tbaa !64
  %103 = icmp ne ptr %102, null
  br i1 %103, label %105, label %104

104:                                              ; preds = %101
  store ptr @read_one_entry_quick, ptr %12, align 8, !tbaa !64
  br label %105

105:                                              ; preds = %104, %101
  %106 = load ptr, ptr @the_repository, align 8, !tbaa !48
  %107 = load ptr, ptr %7, align 8, !tbaa !162
  %108 = load ptr, ptr %12, align 8, !tbaa !64
  %109 = load ptr, ptr %4, align 8, !tbaa !4
  %110 = call i32 @read_tree(ptr noundef %106, ptr noundef %107, ptr noundef %9, ptr noundef %108, ptr noundef %109)
  store i32 %110, ptr %13, align 4, !tbaa !9
  call void @clear_pathspec(ptr noundef %9)
  %111 = load i32, ptr %13, align 4, !tbaa !9
  %112 = icmp ne i32 %111, 0
  br i1 %112, label %113, label %115

113:                                              ; preds = %105
  %114 = load ptr, ptr %5, align 8, !tbaa !11
  call void (ptr, ...) @die(ptr noundef @.str.48, ptr noundef %114) #14
  unreachable

115:                                              ; preds = %105
  %116 = load ptr, ptr %12, align 8, !tbaa !64
  %117 = icmp eq ptr %116, @read_one_entry_quick
  br i1 %117, label %118, label %128

118:                                              ; preds = %115
  %119 = load ptr, ptr %4, align 8, !tbaa !4
  %120 = getelementptr inbounds nuw %struct.index_state, ptr %119, i32 0, i32 6
  call void @cache_tree_free(ptr noundef %120)
  %121 = load ptr, ptr %4, align 8, !tbaa !4
  %122 = getelementptr inbounds nuw %struct.index_state, ptr %121, i32 0, i32 0
  %123 = load ptr, ptr %122, align 8, !tbaa !13
  %124 = load ptr, ptr %4, align 8, !tbaa !4
  %125 = getelementptr inbounds nuw %struct.index_state, ptr %124, i32 0, i32 2
  %126 = load i32, ptr %125, align 4, !tbaa !34
  %127 = zext i32 %126 to i64
  call void @sane_qsort(ptr noundef %123, i64 noundef %127, i64 noundef 8, ptr noundef @cmp_cache_name_compare)
  br label %128

128:                                              ; preds = %118, %115
  store i32 0, ptr %11, align 4, !tbaa !9
  br label %129

129:                                              ; preds = %173, %128
  %130 = load i32, ptr %11, align 4, !tbaa !9
  %131 = load ptr, ptr %4, align 8, !tbaa !4
  %132 = getelementptr inbounds nuw %struct.index_state, ptr %131, i32 0, i32 2
  %133 = load i32, ptr %132, align 4, !tbaa !34
  %134 = icmp ult i32 %130, %133
  br i1 %134, label %135, label %176

135:                                              ; preds = %129
  call void @llvm.lifetime.start.p0(i64 8, ptr %17) #12
  %136 = load ptr, ptr %4, align 8, !tbaa !4
  %137 = getelementptr inbounds nuw %struct.index_state, ptr %136, i32 0, i32 0
  %138 = load ptr, ptr %137, align 8, !tbaa !13
  %139 = load i32, ptr %11, align 4, !tbaa !9
  %140 = sext i32 %139 to i64
  %141 = getelementptr inbounds ptr, ptr %138, i64 %140
  %142 = load ptr, ptr %141, align 8, !tbaa !29
  store ptr %142, ptr %17, align 8, !tbaa !29
  %143 = load ptr, ptr %17, align 8, !tbaa !29
  %144 = getelementptr inbounds nuw %struct.cache_entry, ptr %143, i32 0, i32 3
  %145 = load i32, ptr %144, align 8, !tbaa !9
  %146 = and i32 12288, %145
  %147 = lshr i32 %146, 12
  switch i32 %147, label %150 [
    i32 0, label %148
    i32 1, label %151
  ]

148:                                              ; preds = %135
  %149 = load ptr, ptr %17, align 8, !tbaa !29
  store ptr %149, ptr %10, align 8, !tbaa !29
  br label %150

150:                                              ; preds = %135, %148
  store i32 10, ptr %15, align 4
  br label %170

151:                                              ; preds = %135
  %152 = load ptr, ptr %10, align 8, !tbaa !29
  %153 = icmp ne ptr %152, null
  br i1 %153, label %154, label %168

154:                                              ; preds = %151
  %155 = load ptr, ptr %10, align 8, !tbaa !29
  %156 = getelementptr inbounds nuw %struct.cache_entry, ptr %155, i32 0, i32 8
  %157 = getelementptr inbounds [0 x i8], ptr %156, i64 0, i64 0
  %158 = load ptr, ptr %17, align 8, !tbaa !29
  %159 = getelementptr inbounds nuw %struct.cache_entry, ptr %158, i32 0, i32 8
  %160 = getelementptr inbounds [0 x i8], ptr %159, i64 0, i64 0
  %161 = call i32 @strcmp(ptr noundef %157, ptr noundef %160) #13
  %162 = icmp ne i32 %161, 0
  br i1 %162, label %168, label %163

163:                                              ; preds = %154
  %164 = load ptr, ptr %17, align 8, !tbaa !29
  %165 = getelementptr inbounds nuw %struct.cache_entry, ptr %164, i32 0, i32 3
  %166 = load i32, ptr %165, align 8, !tbaa !9
  %167 = or i32 %166, 65536
  store i32 %167, ptr %165, align 8, !tbaa !9
  br label %168

168:                                              ; preds = %163, %154, %151
  br label %169

169:                                              ; preds = %168
  store i32 0, ptr %15, align 4
  br label %170

170:                                              ; preds = %169, %150
  call void @llvm.lifetime.end.p0(i64 8, ptr %17) #12
  %171 = load i32, ptr %15, align 4
  switch i32 %171, label %177 [
    i32 0, label %172
    i32 10, label %173
  ]

172:                                              ; preds = %170
  br label %173

173:                                              ; preds = %172, %170
  %174 = load i32, ptr %11, align 4, !tbaa !9
  %175 = add nsw i32 %174, 1
  store i32 %175, ptr %11, align 4, !tbaa !9
  br label %129, !llvm.loop !214

176:                                              ; preds = %129
  call void @llvm.lifetime.end.p0(i64 4, ptr %13) #12
  call void @llvm.lifetime.end.p0(i64 8, ptr %12) #12
  call void @llvm.lifetime.end.p0(i64 4, ptr %11) #12
  call void @llvm.lifetime.end.p0(i64 8, ptr %10) #12
  call void @llvm.lifetime.end.p0(i64 24, ptr %9) #12
  call void @llvm.lifetime.end.p0(i64 36, ptr %8) #12
  call void @llvm.lifetime.end.p0(i64 8, ptr %7) #12
  ret void

177:                                              ; preds = %170, %58
  unreachable
}