; Function Attrs: nounwind uwtable
define dso_local void @overlay_tree_on_index(ptr noundef %0, ptr noundef %1, ptr noundef %2) local_unnamed_addr #0 {
  %4 = alloca %struct.object_id, align 4
  %5 = alloca %struct.pathspec, align 8
  call void @llvm.lifetime.start.p0(i64 36, ptr nonnull %4) #30
  call void @llvm.lifetime.start.p0(i64 24, ptr nonnull %5) #30
  %6 = load ptr, ptr @the_repository, align 8, !tbaa !52
  %7 = call i32 @repo_get_oid(ptr noundef %6, ptr noundef %1, ptr noundef nonnull %4) #30
  %.not = icmp eq i32 %7, 0
  br i1 %.not, label %9, label %8

8:                                                ; preds = %3
  call void (ptr, ...) @die(ptr noundef nonnull @.str.46, ptr noundef %1) #31
  unreachable

9:                                                ; preds = %3
  %10 = call ptr @parse_tree_indirect(ptr noundef nonnull %4) #30
  %.not48 = icmp eq ptr %10, null
  br i1 %.not48, label %11, label %12

11:                                               ; preds = %9
  call void (ptr, ...) @die(ptr noundef nonnull @.str.47, ptr noundef %1) #31
  unreachable

12:                                               ; preds = %9
  call void @ensure_full_index(ptr noundef %0) #30
  %13 = getelementptr inbounds nuw i8, ptr %0, i64 12
  %14 = load i32, ptr %13, align 4, !tbaa !34
  %.not61 = icmp eq i32 %14, 0
  br i1 %.not61, label %._crit_edge, label %.lr.ph

.lr.ph:                                           ; preds = %12
  %15 = load ptr, ptr %0, align 8, !tbaa !4
  br label %16

16:                                               ; preds = %.lr.ph, %25
  %17 = phi i32 [ %14, %.lr.ph ], [ %26, %25 ]
  %indvars.iv = phi i64 [ 0, %.lr.ph ], [ %indvars.iv.next, %25 ]
  %18 = getelementptr inbounds nuw ptr, ptr %15, i64 %indvars.iv
  %19 = load ptr, ptr %18, align 8, !tbaa !25
  %20 = getelementptr inbounds nuw i8, ptr %19, i64 56
  %21 = load i32, ptr %20, align 8, !tbaa !32
  %22 = and i32 %21, 12288
  %.not54 = icmp eq i32 %22, 0
  br i1 %.not54, label %25, label %23

23:                                               ; preds = %16
  %24 = or i32 %21, 12288
  store i32 %24, ptr %20, align 8, !tbaa !32
  %.pre = load i32, ptr %13, align 4, !tbaa !34
  br label %25

25:                                               ; preds = %16, %23
  %26 = phi i32 [ %17, %16 ], [ %.pre, %23 ]
  %indvars.iv.next = add nuw nsw i64 %indvars.iv, 1
  %27 = zext i32 %26 to i64
  %28 = icmp samesign ult i64 %indvars.iv.next, %27
  br i1 %28, label %16, label %._crit_edge, !llvm.loop !180

._crit_edge:                                      ; preds = %25, %12
  %29 = phi i32 [ 0, %12 ], [ %26, %25 ]
  %.not49 = icmp eq ptr %2, null
  br i1 %.not49, label %31, label %30

30:                                               ; preds = %._crit_edge
  store ptr null, ptr @overlay_tree_on_index.matchbuf, align 8, !tbaa !81
  call void @parse_pathspec(ptr noundef nonnull %5, i32 noundef 127, i32 noundef 1, ptr noundef nonnull %2, ptr noundef nonnull @overlay_tree_on_index.matchbuf) #30
  %.pre71 = load i32, ptr %13, align 4, !tbaa !34
  br label %32

31:                                               ; preds = %._crit_edge
  call void @llvm.memset.p0.i64(ptr noundef nonnull align 8 dereferenceable(24) %5, i8 0, i64 24, i1 false)
  br label %32

32:                                               ; preds = %31, %30
  %33 = phi i32 [ %29, %31 ], [ %.pre71, %30 ]
  %wide.trip.count = zext i32 %33 to i64
  br label %34

34:                                               ; preds = %32, %select.unfold
  %indvars.iv65 = phi i64 [ 0, %32 ], [ %indvars.iv.next66, %select.unfold ]
  %exitcond.not = icmp eq i64 %indvars.iv65, %wide.trip.count
  br i1 %exitcond.not, label %.critedge, label %select.unfold

select.unfold:                                    ; preds = %34
  %35 = load ptr, ptr %0, align 8, !tbaa !4
  %36 = getelementptr inbounds nuw ptr, ptr %35, i64 %indvars.iv65
  %37 = load ptr, ptr %36, align 8, !tbaa !25
  %38 = getelementptr inbounds nuw i8, ptr %37, i64 56
  %39 = load i32, ptr %38, align 8, !tbaa !32
  %40 = and i32 %39, 12288
  %.not62 = icmp eq i32 %40, 4096
  %indvars.iv.next66 = add nuw nsw i64 %indvars.iv65, 1
  br i1 %.not62, label %.critedge, label %34

.critedge:                                        ; preds = %select.unfold, %34
  %spec.store.select = phi ptr [ @read_one_entry, %select.unfold ], [ @read_one_entry_quick, %34 ]
  %41 = load ptr, ptr @the_repository, align 8, !tbaa !52
  %42 = call i32 @read_tree(ptr noundef %41, ptr noundef nonnull %10, ptr noundef nonnull %5, ptr noundef nonnull %spec.store.select, ptr noundef nonnull %0) #30
  call void @clear_pathspec(ptr noundef nonnull %5) #30
  %.not51 = icmp eq i32 %42, 0
  br i1 %.not51, label %44, label %43

43:                                               ; preds = %.critedge
  call void (ptr, ...) @die(ptr noundef nonnull @.str.48, ptr noundef %1) #31
  unreachable

44:                                               ; preds = %.critedge
  br i1 %exitcond.not, label %45, label %sane_qsort.exitthread-pre-split

45:                                               ; preds = %44
  %46 = getelementptr inbounds nuw i8, ptr %0, i64 32
  call void @cache_tree_free(ptr noundef nonnull %46) #30
  %47 = load i32, ptr %13, align 4, !tbaa !34
  %48 = icmp ugt i32 %47, 1
  br i1 %48, label %49, label %sane_qsort.exit

49:                                               ; preds = %45
  %50 = zext i32 %47 to i64
  %51 = load ptr, ptr %0, align 8, !tbaa !4
  call void @qsort(ptr noundef %51, i64 noundef range(i64 0, 4294967296) %50, i64 noundef 8, ptr noundef nonnull @cmp_cache_name_compare) #30
  br label %sane_qsort.exitthread-pre-split

sane_qsort.exitthread-pre-split:                  ; preds = %44, %49
  %.pr = load i32, ptr %13, align 4, !tbaa !34
  br label %sane_qsort.exit

sane_qsort.exit:                                  ; preds = %sane_qsort.exitthread-pre-split, %45
  %52 = phi i32 [ %.pr, %sane_qsort.exitthread-pre-split ], [ %47, %45 ]
  %.not63 = icmp eq i32 %52, 0
  br i1 %.not63, label %._crit_edge60, label %.lr.ph59

.lr.ph59:                                         ; preds = %sane_qsort.exit
  %53 = load ptr, ptr %0, align 8, !tbaa !4
  br label %54

54:                                               ; preds = %.lr.ph59, %70
  %55 = phi i32 [ %52, %.lr.ph59 ], [ %71, %70 ]
  %indvars.iv68 = phi i64 [ 0, %.lr.ph59 ], [ %indvars.iv.next69, %70 ]
  %.058 = phi ptr [ null, %.lr.ph59 ], [ %.2, %70 ]
  %56 = getelementptr inbounds nuw ptr, ptr %53, i64 %indvars.iv68
  %57 = load ptr, ptr %56, align 8, !tbaa !25
  %58 = getelementptr inbounds nuw i8, ptr %57, i64 56
  %59 = load i32, ptr %58, align 8, !tbaa !32
  %60 = lshr i32 %59, 12
  %61 = and i32 %60, 3
  switch i32 %61, label %70 [
    i32 0, label %62
    i32 1, label %63
  ]

62:                                               ; preds = %54
  br label %70

63:                                               ; preds = %54
  %.not52 = icmp eq ptr %.058, null
  br i1 %.not52, label %70, label %64

64:                                               ; preds = %63
  %65 = getelementptr inbounds nuw i8, ptr %.058, i64 108
  %66 = getelementptr inbounds nuw i8, ptr %57, i64 108
  %67 = call i32 @strcmp(ptr noundef nonnull dereferenceable(1) %65, ptr noundef nonnull dereferenceable(1) %66) #29
  %.not53 = icmp eq i32 %67, 0
  br i1 %.not53, label %68, label %70

68:                                               ; preds = %64
  %69 = or i32 %59, 65536
  store i32 %69, ptr %58, align 8, !tbaa !32
  %.pre72 = load i32, ptr %13, align 4, !tbaa !34
  br label %70

70:                                               ; preds = %68, %64, %63, %54, %62
  %71 = phi i32 [ %55, %54 ], [ %55, %62 ], [ %55, %63 ], [ %55, %64 ], [ %.pre72, %68 ]
  %.2 = phi ptr [ %.058, %54 ], [ %57, %62 ], [ null, %63 ], [ %.058, %64 ], [ %.058, %68 ]
  %indvars.iv.next69 = add nuw nsw i64 %indvars.iv68, 1
  %72 = zext i32 %71 to i64
  %73 = icmp samesign ult i64 %indvars.iv.next69, %72
  br i1 %73, label %54, label %._crit_edge60, !llvm.loop !181

._crit_edge60:                                    ; preds = %70, %sane_qsort.exit
  call void @llvm.lifetime.end.p0(i64 24, ptr nonnull %5) #30
  call void @llvm.lifetime.end.p0(i64 36, ptr nonnull %4) #30
  ret void
}